Certificate:
    Data:
        Version: 3 (0x2)
        Serial Number: 1 (0x1)
    Signature Algorithm: md5WithRSAEncryption
        Issuer: C=FR, ST=Radius, L=Somewhere, O=Example Inc./emailAddress=admin@example.com, CN=Example Certificate Authority
        Validity
            Not Before: Dec 13 09:56:53 2016 GMT
            Not After : Dec 13 09:56:53 2017 GMT
        Subject: C=FR, ST=Radius, O=Example Inc., CN=Example Server Certificate/emailAddress=admin@example.com
        Subject Public Key Info:
            Public Key Algorithm: rsaEncryption
                Public-Key: (2048 bit)
                Modulus:
                    00:a2:e8:65:d6:ed:a9:65:db:05:01:94:09:17:8a:
                    53:aa:a7:4c:36:09:e9:a1:3a:df:3c:02:11:83:55:
                    25:b1:8d:f5:d2:d7:da:63:ac:e9:5b:7e:e7:4c:ce:
                    16:59:24:e0:e0:2e:59:d1:7a:c1:db:1b:af:ea:f4:
                    20:93:15:8b:c6:e2:31:46:17:ae:86:92:63:34:4d:
                    62:2a:cb:11:71:7a:a8:a4:c0:d2:f3:87:01:c8:7f:
                    88:35:24:5e:92:d3:68:03:fe:1a:c4:ba:60:94:d1:
                    5d:fb:29:7d:11:90:5f:a9:da:9b:13:97:7e:51:9e:
                    1c:9f:00:a9:ea:c7:ac:4e:43:91:3c:f7:78:bb:3c:
                    06:39:bd:32:b9:b6:15:c7:9a:36:17:a0:1b:51:1c:
                    3b:ae:8b:cf:bb:ef:74:45:37:59:f1:e9:dc:b1:5c:
                    83:82:b2:98:d0:b9:39:47:ae:ab:82:0e:fd:e3:b8:
                    a9:25:50:40:0d:1b:a7:fd:cd:ec:a4:90:92:62:72:
                    c8:e3:52:6f:e9:62:95:ab:37:40:9e:39:46:2d:3d:
                    68:32:fc:4f:01:19:2e:50:f4:fe:e0:e3:cc:a7:f7:
                    0d:5f:c9:9f:73:56:2d:fe:fe:f4:7d:92:e4:75:8c:
                    a8:d5:1e:ce:5a:52:d4:fa:7e:eb:eb:8c:98:a7:94:
                    b5:2d
                Exponent: 65537 (0x10001)
        X509v3 extensions:
            X509v3 Extended Key Usage: 
                TLS Web Server Authentication
    Signature Algorithm: md5WithRSAEncryption
         aa:91:5a:3c:6a:82:88:85:23:d4:bc:7b:6b:d8:70:36:32:3a:
         13:8e:3a:8a:83:c5:cf:a9:1a:ef:7c:83:5b:90:76:4d:fb:49:
         96:ab:33:cc:52:cd:74:3c:9a:d2:e5:df:7a:b0:7c:e8:78:d5:
         b7:b8:12:40:1c:01:d7:c4:43:4e:e5:3e:1d:29:ef:9c:ed:43:
         a0:71:dd:5f:e8:f6:fe:c5:c2:2d:39:47:b8:1e:d5:38:48:89:
         80:ff:87:d4:46:04:da:62:27:c0:25:18:42:9f:6a:01:6b:c2:
         6f:d1:69:0f:0f:90:57:02:75:8d:1b:33:b3:78:a9:14:4a:a5:
         7c:e7:ad:1e:af:62:c1:c6:42:b5:e3:5d:fa:ca:e3:64:de:85:
         b2:b8:36:0f:67:b5:c7:57:e8:c1:8b:ab:b9:01:6a:ce:14:1e:
         4a:72:45:d8:f9:07:f0:e7:2d:55:62:74:f6:0f:3b:7c:43:6e:
         17:a5:23:ca:2a:c2:a7:1f:94:10:4e:9d:b7:a9:c4:2f:b1:c9:
         51:b3:2d:0e:b1:3f:c2:46:2b:5e:36:51:57:dc:39:41:7b:2b:
         36:28:d3:3b:5c:14:f1:6f:22:a6:4f:fc:46:b7:31:01:46:be:
         16:98:0b:22:a3:0c:94:ad:d3:97:6a:b6:c8:77:6f:3f:32:c4:
         6e:67:7f:81
-----BEGIN CERTIFICATE-----
MIIDojCCAoqgAwIBAgIBATANBgkqhkiG9w0BAQQFADCBkzELMAkGA1UEBhMCRlIx
DzANBgNVBAgMBlJhZGl1czESMBAGA1UEBwwJU29tZXdoZXJlMRUwEwYDVQQKDAxF
eGFtcGxlIEluYy4xIDAeBgkqhkiG9w0BCQEWEWFkbWluQGV4YW1wbGUuY29tMSYw
JAYDVQQDDB1FeGFtcGxlIENlcnRpZmljYXRlIEF1dGhvcml0eTAeFw0xNjEyMTMw
OTU2NTNaFw0xNzEyMTMwOTU2NTNaMHwxCzAJBgNVBAYTAkZSMQ8wDQYDVQQIDAZS
YWRpdXMxFTATBgNVBAoMDEV4YW1wbGUgSW5jLjEjMCEGA1UEAwwaRXhhbXBsZSBT
ZXJ2ZXIgQ2VydGlmaWNhdGUxIDAeBgkqhkiG9w0BCQEWEWFkbWluQGV4YW1wbGUu
Y29tMIIBIjANBgkqhkiG9w0BAQEFAAOCAQ8AMIIBCgKCAQEAouhl1u2pZdsFAZQJ
F4pTqqdMNgnpoTrfPAIRg1UlsY310tfaY6zpW37nTM4WWSTg4C5Z0XrB2xuv6vQg
kxWLxuIxRheuhpJjNE1iKssRcXqopMDS84cByH+INSRektNoA/4axLpglNFd+yl9
EZBfqdqbE5d+UZ4cnwCp6sesTkORPPd4uzwGOb0yubYVx5o2F6AbURw7rovPu+90
RTdZ8encsVyDgrKY0Lk5R66rgg7947ipJVBADRun/c3spJCSYnLI41Jv6WKVqzdA
njlGLT1oMvxPARkuUPT+4OPMp/cNX8mfc1Yt/v70fZLkdYyo1R7OWlLU+n7r64yY
p5S1LQIDAQABoxcwFTATBgNVHSUEDDAKBggrBgEFBQcDATANBgkqhkiG9w0BAQQF
AAOCAQEAqpFaPGqCiIUj1Lx7a9hwNjI6E446ioPFz6ka73yDW5B2TftJlqszzFLN
dDya0uXferB86HjVt7gSQBwB18RDTuU+HSnvnO1DoHHdX+j2/sXCLTlHuB7VOEiJ
gP+H1EYE2mInwCUYQp9qAWvCb9FpDw+QVwJ1jRszs3ipFEqlfOetHq9iwcZCteNd
+srjZN6Fsrg2D2e1x1fowYuruQFqzhQeSnJF2PkH8OctVWJ09g87fENuF6UjyirC
px+UEE6dt6nEL7HJUbMtDrE/wkYrXjZRV9w5QXsrNijTO1wU8W8ipk/8RrcxAUa+
FpgLIqMMlK3Tl2q2yHdvPzLEbmd/gQ==
-----END CERTIFICATE-----
